; Function Attrs: mustprogress nofree norecurse nosync nounwind willreturn memory(argmem: write) uwtable
define internal noundef zeroext i1 @"_ZNSt17_Function_handlerIFN4lean8optionalINS0_4exprEEERKS2_jEZNS0_13ll_infer_typeERKNS0_16elab_environmentERKNS0_8list_refINS0_8pair_refINS0_4nameES2_EEEERNS0_6bufferIS2_Lm16EEEE3$_0E10_M_managerERSt9_Any_dataRKSM_St18_Manager_operation"(ptr noundef nonnull writeonly align 8 captures(none) dereferenceable(16) %0, ptr noundef nonnull align 8 dereferenceable(16) %1, i32 noundef %2) #13 align 2 personality ptr @__gxx_personality_v0 {
  switch i32 %2, label %"_ZNSt14_Function_base13_Base_managerIZN4lean13ll_infer_typeERKNS1_16elab_environmentERKNS1_8list_refINS1_8pair_refINS1_4nameENS1_4exprEEEEERNS1_6bufferIS8_Lm16EEEE3$_0E10_M_managerERSt9_Any_dataRKSI_St18_Manager_operation.exit" [
    i32 0, label %"_ZNSt14_Function_base13_Base_managerIZN4lean13ll_infer_typeERKNS1_16elab_environmentERKNS1_8list_refINS1_8pair_refINS1_4nameENS1_4exprEEEEERNS1_6bufferIS8_Lm16EEEE3$_0E10_M_managerERSt9_Any_dataRKSI_St18_Manager_operation.exit.sink.split"
    i32 1, label %4
  ]

4:                                                ; preds = %3
  br label %"_ZNSt14_Function_base13_Base_managerIZN4lean13ll_infer_typeERKNS1_16elab_environmentERKNS1_8list_refINS1_8pair_refINS1_4nameENS1_4exprEEEEERNS1_6bufferIS8_Lm16EEEE3$_0E10_M_managerERSt9_Any_dataRKSI_St18_Manager_operation.exit.sink.split"

"_ZNSt14_Function_base13_Base_managerIZN4lean13ll_infer_typeERKNS1_16elab_environmentERKNS1_8list_refINS1_8pair_refINS1_4nameENS1_4exprEEEEERNS1_6bufferIS8_Lm16EEEE3$_0E10_M_managerERSt9_Any_dataRKSI_St18_Manager_operation.exit.sink.split": ; preds = %3, %4
  %.sink = phi ptr [ %1, %4 ], [ @"_ZTIZN4lean13ll_infer_typeERKNS_16elab_environmentERKNS_8list_refINS_8pair_refINS_4nameENS_4exprEEEEERNS_6bufferIS6_Lm16EEEE3$_0", %3 ]
  store ptr %.sink, ptr %0, align 8, !tbaa !24
  br label %"_ZNSt14_Function_base13_Base_managerIZN4lean13ll_infer_typeERKNS1_16elab_environmentERKNS1_8list_refINS1_8pair_refINS1_4nameENS1_4exprEEEEERNS1_6bufferIS8_Lm16EEEE3$_0E10_M_managerERSt9_Any_dataRKSI_St18_Manager_operation.exit"

"_ZNSt14_Function_base13_Base_managerIZN4lean13ll_infer_typeERKNS1_16elab_environmentERKNS1_8list_refINS1_8pair_refINS1_4nameENS1_4exprEEEEERNS1_6bufferIS8_Lm16EEEE3$_0E10_M_managerERSt9_Any_dataRKSI_St18_Manager_operation.exit": ; preds = %"_ZNSt14_Function_base13_Base_managerIZN4lean13ll_infer_typeERKNS1_16elab_environmentERKNS1_8list_refINS1_8pair_refINS1_4nameENS1_4exprEEEEERNS1_6bufferIS8_Lm16EEEE3$_0E10_M_managerERSt9_Any_dataRKSI_St18_Manager_operation.exit.sink.split", %3
  ret i1 false
}